; Function Attrs: mustprogress nofree norecurse nosync nounwind willreturn memory(argmem: read) uwtable
define noundef zeroext i1 @_ZNK32pxrInternal_v0_24__pxrReserved__11GfTransformeqERKS0_(ptr noundef nonnull readonly align 8 captures(none) dereferenceable(136) %0, ptr noundef nonnull readonly align 8 captures(none) dereferenceable(136) %1) local_unnamed_addr #5 align 2 {
  %3 = getelementptr inbounds nuw i8, ptr %0, i64 56
  %4 = getelementptr inbounds nuw i8, ptr %1, i64 56
  %5 = load double, ptr %3, align 8
  %6 = load double, ptr %4, align 8
  %7 = fcmp oeq double %5, %6
  br i1 %7, label %8, label %_ZNK32pxrInternal_v0_24__pxrReserved__7GfVec3deqERKS0_.exit8

8:                                                ; preds = %2
  %9 = getelementptr inbounds nuw i8, ptr %0, i64 64
  %10 = load double, ptr %9, align 8
  %11 = getelementptr inbounds nuw i8, ptr %1, i64 64
  %12 = load double, ptr %11, align 8
  %13 = fcmp oeq double %10, %12
  br i1 %13, label %_ZNK32pxrInternal_v0_24__pxrReserved__7GfVec3deqERKS0_.exit, label %_ZNK32pxrInternal_v0_24__pxrReserved__7GfVec3deqERKS0_.exit8

_ZNK32pxrInternal_v0_24__pxrReserved__7GfVec3deqERKS0_.exit: ; preds = %8
  %14 = getelementptr inbounds nuw i8, ptr %0, i64 72
  %15 = load double, ptr %14, align 8
  %16 = getelementptr inbounds nuw i8, ptr %1, i64 72
  %17 = load double, ptr %16, align 8
  %18 = fcmp oeq double %15, %17
  br i1 %18, label %19, label %_ZNK32pxrInternal_v0_24__pxrReserved__7GfVec3deqERKS0_.exit8

19:                                               ; preds = %_ZNK32pxrInternal_v0_24__pxrReserved__7GfVec3deqERKS0_.exit
  %20 = getelementptr inbounds nuw i8, ptr %0, i64 80
  %21 = getelementptr inbounds nuw i8, ptr %1, i64 80
  %22 = load double, ptr %20, align 8
  %23 = load double, ptr %21, align 8
  %24 = fcmp oeq double %22, %23
  br i1 %24, label %25, label %_ZNK32pxrInternal_v0_24__pxrReserved__7GfVec3deqERKS0_.exit8

25:                                               ; preds = %19
  %26 = getelementptr inbounds nuw i8, ptr %0, i64 88
  %27 = load double, ptr %26, align 8
  %28 = getelementptr inbounds nuw i8, ptr %1, i64 88
  %29 = load double, ptr %28, align 8
  %30 = fcmp oeq double %27, %29
  br i1 %30, label %_ZNK32pxrInternal_v0_24__pxrReserved__10GfRotationeqERKS0_.exit, label %_ZNK32pxrInternal_v0_24__pxrReserved__7GfVec3deqERKS0_.exit8

_ZNK32pxrInternal_v0_24__pxrReserved__10GfRotationeqERKS0_.exit: ; preds = %25
  %31 = getelementptr inbounds nuw i8, ptr %0, i64 96
  %32 = load double, ptr %31, align 8
  %33 = getelementptr inbounds nuw i8, ptr %1, i64 96
  %34 = load double, ptr %33, align 8
  %35 = fcmp oeq double %32, %34
  %36 = getelementptr inbounds nuw i8, ptr %0, i64 104
  %37 = load double, ptr %36, align 8
  %38 = getelementptr inbounds nuw i8, ptr %1, i64 104
  %39 = load double, ptr %38, align 8
  %40 = fcmp oeq double %37, %39
  %41 = select i1 %35, i1 %40, i1 false
  br i1 %41, label %42, label %_ZNK32pxrInternal_v0_24__pxrReserved__7GfVec3deqERKS0_.exit8

42:                                               ; preds = %_ZNK32pxrInternal_v0_24__pxrReserved__10GfRotationeqERKS0_.exit
  %43 = getelementptr inbounds nuw i8, ptr %0, i64 24
  %44 = getelementptr inbounds nuw i8, ptr %1, i64 24
  %45 = load double, ptr %43, align 8
  %46 = load double, ptr %44, align 8
  %47 = fcmp oeq double %45, %46
  br i1 %47, label %48, label %_ZNK32pxrInternal_v0_24__pxrReserved__7GfVec3deqERKS0_.exit8

48:                                               ; preds = %42
  %49 = getelementptr inbounds nuw i8, ptr %0, i64 32
  %50 = load double, ptr %49, align 8
  %51 = getelementptr inbounds nuw i8, ptr %1, i64 32
  %52 = load double, ptr %51, align 8
  %53 = fcmp oeq double %50, %52
  br i1 %53, label %_ZNK32pxrInternal_v0_24__pxrReserved__10GfRotationeqERKS0_.exit6, label %_ZNK32pxrInternal_v0_24__pxrReserved__7GfVec3deqERKS0_.exit8

_ZNK32pxrInternal_v0_24__pxrReserved__10GfRotationeqERKS0_.exit6: ; preds = %48
  %54 = getelementptr inbounds nuw i8, ptr %0, i64 40
  %55 = load double, ptr %54, align 8
  %56 = getelementptr inbounds nuw i8, ptr %1, i64 40
  %57 = load double, ptr %56, align 8
  %58 = fcmp oeq double %55, %57
  %59 = getelementptr inbounds nuw i8, ptr %0, i64 48
  %60 = load double, ptr %59, align 8
  %61 = getelementptr inbounds nuw i8, ptr %1, i64 48
  %62 = load double, ptr %61, align 8
  %63 = fcmp oeq double %60, %62
  %64 = select i1 %58, i1 %63, i1 false
  br i1 %64, label %65, label %_ZNK32pxrInternal_v0_24__pxrReserved__7GfVec3deqERKS0_.exit8

65:                                               ; preds = %_ZNK32pxrInternal_v0_24__pxrReserved__10GfRotationeqERKS0_.exit6
  %66 = getelementptr inbounds nuw i8, ptr %0, i64 112
  %67 = getelementptr inbounds nuw i8, ptr %1, i64 112
  %68 = load double, ptr %66, align 8
  %69 = load double, ptr %67, align 8
  %70 = fcmp oeq double %68, %69
  br i1 %70, label %71, label %_ZNK32pxrInternal_v0_24__pxrReserved__7GfVec3deqERKS0_.exit8

71:                                               ; preds = %65
  %72 = getelementptr inbounds nuw i8, ptr %0, i64 120
  %73 = load double, ptr %72, align 8
  %74 = getelementptr inbounds nuw i8, ptr %1, i64 120
  %75 = load double, ptr %74, align 8
  %76 = fcmp oeq double %73, %75
  br i1 %76, label %_ZNK32pxrInternal_v0_24__pxrReserved__7GfVec3deqERKS0_.exit7, label %_ZNK32pxrInternal_v0_24__pxrReserved__7GfVec3deqERKS0_.exit8

_ZNK32pxrInternal_v0_24__pxrReserved__7GfVec3deqERKS0_.exit7: ; preds = %71
  %77 = getelementptr inbounds nuw i8, ptr %0, i64 128
  %78 = load double, ptr %77, align 8
  %79 = getelementptr inbounds nuw i8, ptr %1, i64 128
  %80 = load double, ptr %79, align 8
  %81 = fcmp oeq double %78, %80
  br i1 %81, label %82, label %_ZNK32pxrInternal_v0_24__pxrReserved__7GfVec3deqERKS0_.exit8

82:                                               ; preds = %_ZNK32pxrInternal_v0_24__pxrReserved__7GfVec3deqERKS0_.exit7
  %83 = load double, ptr %0, align 8
  %84 = load double, ptr %1, align 8
  %85 = fcmp oeq double %83, %84
  br i1 %85, label %86, label %_ZNK32pxrInternal_v0_24__pxrReserved__7GfVec3deqERKS0_.exit8

86:                                               ; preds = %82
  %87 = getelementptr inbounds nuw i8, ptr %0, i64 8
  %88 = load double, ptr %87, align 8
  %89 = getelementptr inbounds nuw i8, ptr %1, i64 8
  %90 = load double, ptr %89, align 8
  %91 = fcmp oeq double %88, %90
  br i1 %91, label %92, label %_ZNK32pxrInternal_v0_24__pxrReserved__7GfVec3deqERKS0_.exit8

92:                                               ; preds = %86
  %93 = getelementptr inbounds nuw i8, ptr %0, i64 16
  %94 = load double, ptr %93, align 8
  %95 = getelementptr inbounds nuw i8, ptr %1, i64 16
  %96 = load double, ptr %95, align 8
  %97 = fcmp oeq double %94, %96
  br label %_ZNK32pxrInternal_v0_24__pxrReserved__7GfVec3deqERKS0_.exit8

_ZNK32pxrInternal_v0_24__pxrReserved__7GfVec3deqERKS0_.exit8: ; preds = %65, %71, %42, %48, %19, %25, %2, %8, %92, %86, %82, %_ZNK32pxrInternal_v0_24__pxrReserved__7GfVec3deqERKS0_.exit7, %_ZNK32pxrInternal_v0_24__pxrReserved__10GfRotationeqERKS0_.exit6, %_ZNK32pxrInternal_v0_24__pxrReserved__10GfRotationeqERKS0_.exit, %_ZNK32pxrInternal_v0_24__pxrReserved__7GfVec3deqERKS0_.exit
  %98 = phi i1 [ false, %_ZNK32pxrInternal_v0_24__pxrReserved__7GfVec3deqERKS0_.exit7 ], [ false, %_ZNK32pxrInternal_v0_24__pxrReserved__10GfRotationeqERKS0_.exit6 ], [ false, %_ZNK32pxrInternal_v0_24__pxrReserved__10GfRotationeqERKS0_.exit ], [ false, %_ZNK32pxrInternal_v0_24__pxrReserved__7GfVec3deqERKS0_.exit ], [ false, %86 ], [ false, %82 ], [ %97, %92 ], [ false, %8 ], [ false, %2 ], [ false, %25 ], [ false, %19 ], [ false, %48 ], [ false, %42 ], [ false, %71 ], [ false, %65 ]
  ret i1 %98
}